; Function Attrs: null_pointer_is_valid sspstrong uwtable
define internal i32 @dissect_pres_Presentation_context_identifier(i1 noundef zeroext %0, ptr noundef %1, i32 noundef %2, ptr noundef %3, ptr noundef %4, i32 noundef %5) #0 {
  %7 = alloca %struct._pres_ctx_oid_t, align 8
  %8 = getelementptr inbounds nuw i8, ptr %3, i64 48
  %9 = load ptr, ptr %8, align 8
  %10 = tail call i32 @dissect_ber_integer(i1 noundef zeroext %0, ptr noundef %3, ptr noundef %4, ptr noundef %1, i32 noundef %2, i32 noundef %5, ptr noundef nonnull @presentation_context_identifier)
  %.not = icmp eq ptr %9, null
  br i1 %.not, label %15, label %11

11:                                               ; preds = %6
  %12 = load i32, ptr @presentation_context_identifier, align 4
  %13 = trunc i32 %12 to i8
  %14 = getelementptr inbounds nuw i8, ptr %9, i64 2
  store i8 %13, ptr %14, align 2
  br label %15

15:                                               ; preds = %11, %6
  %16 = getelementptr inbounds nuw i8, ptr %3, i64 16
  %17 = load ptr, ptr %16, align 8
  %18 = load i32, ptr @presentation_context_identifier, align 4
  call void @llvm.lifetime.start.p0(i64 24, ptr nonnull %7) #7
  store i32 %18, ptr %7, align 8
  %19 = tail call ptr @find_conversation_pinfo(ptr noundef %17, i32 noundef 0)
  %.not.i = icmp eq ptr %19, null
  br i1 %.not.i, label %23, label %20

20:                                               ; preds = %15
  %21 = getelementptr inbounds nuw i8, ptr %19, i64 24
  %22 = load i32, ptr %21, align 8
  br label %23

23:                                               ; preds = %20, %15
  %.sink.i = phi i32 [ %22, %20 ], [ 0, %15 ]
  %24 = getelementptr inbounds nuw i8, ptr %7, i64 16
  store i32 %.sink.i, ptr %24, align 8
  %25 = load ptr, ptr @pres_ctx_oid_table, align 8
  %26 = call ptr @wmem_map_lookup(ptr noundef %25, ptr noundef nonnull %7)
  %.not10.i = icmp eq ptr %26, null
  br i1 %.not10.i, label %29, label %27

27:                                               ; preds = %23
  %28 = getelementptr inbounds nuw i8, ptr %26, i64 8
  br label %find_oid_by_pres_ctx_id.exit

29:                                               ; preds = %23
  %30 = load i32, ptr @num_pres_users, align 4
  %.not16.i.i = icmp eq i32 %30, 0
  br i1 %.not16.i.i, label %find_oid_by_pres_ctx_id.exit.thread, label %.lr.ph.i.i

.lr.ph.i.i:                                       ; preds = %29
  %31 = load ptr, ptr @pres_users, align 8
  %wide.trip.count.i.i = zext i32 %30 to i64
  br label %33

32:                                               ; preds = %33
  %indvars.iv.next.i.i = add nuw nsw i64 %indvars.iv.i.i, 1
  %exitcond.not.i.i = icmp eq i64 %indvars.iv.next.i.i, %wide.trip.count.i.i
  br i1 %exitcond.not.i.i, label %find_oid_by_pres_ctx_id.exit.thread, label %33, !llvm.loop !6

33:                                               ; preds = %32, %.lr.ph.i.i
  %indvars.iv.i.i = phi i64 [ 0, %.lr.ph.i.i ], [ %indvars.iv.next.i.i, %32 ]
  %34 = getelementptr %struct._pres_user_t, ptr %31, i64 %indvars.iv.i.i
  %35 = load i32, ptr %34, align 8
  %.not.i.i = icmp eq i32 %35, %18
  br i1 %.not.i.i, label %.thread.i.i, label %32

.thread.i.i:                                      ; preds = %33
  %36 = getelementptr inbounds nuw i8, ptr %34, i64 8
  %37 = load ptr, ptr %36, align 8
  call fastcc void @register_ctx_id_and_oid(ptr noundef %17, i32 noundef %18, ptr noundef %37)
  br label %find_oid_by_pres_ctx_id.exit

find_oid_by_pres_ctx_id.exit.thread:              ; preds = %32, %29
  call void @llvm.lifetime.end.p0(i64 24, ptr nonnull %7) #7
  br label %46

find_oid_by_pres_ctx_id.exit:                     ; preds = %27, %.thread.i.i
  %.0.i.in = phi ptr [ %28, %27 ], [ %36, %.thread.i.i ]
  %.0.i = load ptr, ptr %.0.i.in, align 8
  call void @llvm.lifetime.end.p0(i64 24, ptr nonnull %7) #7
  %.not17 = icmp eq ptr %.0.i, null
  br i1 %.not17, label %46, label %38

38:                                               ; preds = %find_oid_by_pres_ctx_id.exit
  %39 = load ptr, ptr %16, align 8
  %40 = getelementptr inbounds nuw i8, ptr %39, i64 408
  %41 = load ptr, ptr %40, align 8
  %42 = call ptr @oid_resolved_from_string(ptr noundef %41, ptr noundef nonnull %.0.i)
  %.not18 = icmp eq ptr %42, null
  br i1 %.not18, label %46, label %43

43:                                               ; preds = %38
  %44 = getelementptr inbounds nuw i8, ptr %3, i64 24
  %45 = load ptr, ptr %44, align 8
  call void (ptr, ptr, ...) @proto_item_append_text(ptr noundef %45, ptr noundef nonnull @.str.270, ptr noundef nonnull %42)
  br label %46

46:                                               ; preds = %find_oid_by_pres_ctx_id.exit.thread, %43, %38, %find_oid_by_pres_ctx_id.exit
  ret i32 %10
}